		; ASCII DUMP
		;1000   e}![.>lM  J.f...h.  ._+km m   kM?..L..
		;1020   .@M4..\.  .:.M4.++  6.aIy.OM  F.s#.v+6
		;1040   ,#6 #IMI  .yS[V.O[  Z}&.v0w#  }#I.....
		;1060   ........  MoDiMiDo  FrSaSoEU  k!....~0
		;1080   8.~:0.)D  M)).V0O.  ...hQAI}  eUEu}!Z.
		;10A0   ..kU>0}^  .}V.7mR8  .<.x.}#}  #~0 ...
		;10C0   .> ..O.Q  .. W.. .  .>0.qAQ}  aI.'h.d.
		;10E0   ........  ........  ........  ........
		;1100
			ORG	01000H
		X1103	EQU	01103H
1000  E5		PUSH	HL
1001  FD215B10		LD	IY,T105B
1005  3E6C		LD	A,06CH
1007  CD4A10		CALL	A104A
100A  E60F		AND	00FH
100C  07		RLCA
100D  116810		LD	DE,T1068
1010  83		ADD	A,E
1011  5F		LD	E,A
1012  2B		DEC	HL
1013  EB		EX	DE,HL
1014  EDA0		LDI
1016  EDA0		LDI
1018  EB		EX	DE,HL
1019  CD3F10		CALL	A103F
101C  014C03		LD	BC,0034CH
101F  112E40		LD	DE,0402EH
1022  CD3410		CALL	A1034
1025  015C03		LD	BC,0035CH
1028  113A00		LD	DE,0003AH
102B  CD3410		CALL	A1034
102E  2B		DEC	HL
102F  2B		DEC	HL
1030  360D		LD	(HL),00DH
1032  E1		POP	HL
1033  C9		RET
		;
1034  79	A1034:	LD	A,C
1035  82		ADD	A,D
1036  4F		LD	C,A
1037  CD4610		CALL	A1046
103A  73		LD	(HL),E
103B  23		INC	HL
103C  10F6		DJNZ	A1034
103E  2B		DEC	HL
103F  362C	A103F:	LD	(HL),02CH
1041  23		INC	HL
1042  3620		LD	(HL),020H
1044  23		INC	HL
1045  C9		RET
		;
1046  CD4910	A1046:	CALL	A1049
1049  79	A1049:	LD	A,C
104A  D35B	A104A:	OUT	(05BH),A
104C  D610		SUB	010H
104E  4F		LD	C,A
104F  DB5A		IN	A,(05AH)
1051  FDA600		AND	(IY+000H)
1054  F630		OR	030H
1056  77		LD	(HL),A
1057  23		INC	HL
1058  FD23		INC	IY
105A  C9		RET
		;
		; >> NO EXECUTION PATH TO HERE <<
105B  07	T105B:	RLCA
105C  03		INC	BC
105D  0F		RRCA
105E  010F0F		LD	BC,00F0FH
1061  0F		RRCA
1062  03		INC	BC
1063  0F		RRCA
1064  07		RLCA
1065  0F		RRCA
1066  07		RLCA
1067  0F		RRCA
1068  4D	T1068:	LD	C,L
1069  6F		LD	L,A
106A  44		LD	B,H
106B  69		LD	L,C
106C  4D		LD	C,L
106D  69		LD	L,C
106E  44		LD	B,H
106F  6F		LD	L,A
1070  46		LD	B,(HL)
1071  72		LD	(HL),D
1072  53		LD	D,E
1073  61		LD	H,C
1074  53		LD	D,E
1075  6F		LD	L,A

1076  C5		PUSH	BC
1077  D5		PUSH	DE
1078  EB		EX	DE,HL
1079  210000		LD	HL,00000H
107C  1A	A107C:	LD	A,(DE)
107D  13		INC	DE
107E  FE30		CP	030H
1080  3812		JR	C,A1094
1082  FE3A		CP	03AH
1084  300E		JR	NC,A1094
1086  29		ADD	HL,HL
1087  44		LD	B,H
1088  4D		LD	C,L
1089  29		ADD	HL,HL
108A  29		ADD	HL,HL
108B  09		ADD	HL,BC
108C  D630		SUB	030H
108E  4F		LD	C,A
108F  0600		LD	B,000H
1091  09		ADD	HL,BC
1092  18E8		JR	A107C
		;
1094  D1	A1094:	POP	DE
1095  C1		POP	BC
1096  C9		RET
		;


		; >> NO EXECUTION PATH TO HERE <<
1097  FDE5		PUSH	IY
1099  D5		PUSH	DE
109A  C5		PUSH	BC
109B  F5		PUSH	AF
109C  FD21DA10		LD	IY,T10DA
10A0  0E00		LD	C,000H
10A2  EB		EX	DE,HL
10A3  D5	A10A3:	PUSH	DE
10A4  3E30		LD	A,030H
10A6  FD5E00		LD	E,(IY+000H)
10A9  FD5601		LD	D,(IY+001H)
10AC  B7	A10AC:	OR	A
10AD  ED52		SBC	HL,DE
10AF  3803		JR	C,A10B4
10B1  3C		INC	A
10B2  18F8		JR	A10AC
		;
10B4  19	A10B4:	ADD	HL,DE
10B5  FD23		INC	IY
10B7  FD23		INC	IY
10B9  FE30		CP	030H
10BB  2008		JR	NZ,A10C5
10BD  0C		INC	C
10BE  0D		DEC	C
10BF  2005		JR	NZ,A10C6
10C1  3E20		LD	A,020H
10C3  1801		JR	A10C6
		;
10C5  4F	A10C5:	LD	C,A
10C6  1D	A10C6:	DEC	E
10C7  D1		POP	DE
10C8  12		LD	(DE),A
10C9  13		INC	DE
10CA  20D7		JR	NZ,A10A3
10CC  0C		INC	C
10CD  0D		DEC	C
10CE  2004		JR	NZ,A10D4
10D0  1B		DEC	DE
10D1  3E30		LD	A,030H
10D3  12		LD	(DE),A
10D4  F1	A10D4:	POP	AF
10D5  C1		POP	BC
10D6  D1		POP	DE
10D7  FDE1		POP	IY
10D9  C9		RET
		;
		; >> NO EXECUTION PATH TO HERE <<
10DA  1027	T10DA:	DJNZ	X1103
10DC  E8		RET	PE
10DD  03		INC	BC
10DE  64		LD	H,H
10DF  00		NOP
10E0  0A		LD	A,(BC)
10E1  00		NOP
10E2  01001A		LD	BC,01A00H
10E5  FF		RST	038H
10E6  FF		RST	038H
10E7  FF		RST	038H
10E8  FF		RST	038H
10E9  FF		RST	038H
10EA  FF		RST	038H
10EB  FF		RST	038H
10EC  FF		RST	038H
10ED  FF		RST	038H
10EE  FF		RST	038H
10EF  FF		RST	038H
10F0  FF		RST	038H
10F1  FF		RST	038H
10F2  FF		RST	038H
10F3  FF		RST	038H
10F4  FF		RST	038H
10F5  FF		RST	038H
10F6  FF		RST	038H
10F7  FF		RST	038H
10F8  FF		RST	038H
10F9  FF		RST	038H
10FA  FF		RST	038H
10FB  FF		RST	038H
10FC  FF		RST	038H
10FD  FF		RST	038H
10FE  FF		RST	038H
10FF  FF		RST	038H
			END
		;
		; UNRESOLVED LABELS
		;
		; LABLE CROSS REFRENCE
		;Z0000      Z1079
		;Z003A      Z1028
		;Z034C      Z101C
		;Z035C      Z1025
		;Z0F0F      Z105E
		;A1034      A1022   A102B   A103C
		;A103F      A1019
		;A1046      A1037
		;A1049      A1046
		;A104A      A1007
		;T105B      T1001
		;T1068      T100D
		;A107C      A1092
		;A1094      A1080   A1084
		;A10A3      A10CA
		;A10AC      A10B2
		;A10B4      A10AF
		;A10C5      A10BB
		;A10C6      A10BF   A10C3
		;A10D4      A10CE
		;T10DA      T109C
		;X1103      X10DA
		;Z1A00      Z10E2
		;Z402E      Z101F
