			ORG	01100H
		X3800	EQU	03800H
		X382E	EQU	0382EH
		YFFFF	EQU	0FFFFH
1100  3AFFFF		LD	A,(YFFFF)
1103  E603		AND	003H
1105  C20038	A1105:	JP	NZ,X3800
1108  DB42		IN	A,(042H)
110A  FEFA		CP	0FAH
110C  20F7		JR	NZ,A1105
110E  AF		XOR	A
110F  D341		OUT	(041H),A
1111  D343		OUT	(043H),A
1113  1620		LD	D,020H
1115  21BC11	A1115:	LD	HL,T11BC
1118  010005		LD	BC,00500H
111B  D5		PUSH	DE
111C  CD7511		CALL	A1175
111F  CD8511		CALL	A1185
1122  D1		POP	DE
1123  DB40		IN	A,(040H)
1125  CBAF		RES	5,A
1127  B7		OR	A
1128  2809		JR	Z,A1133
112A  CDDC11		CALL	A11DC
112D  15		DEC	D
112E  20E5		JR	NZ,A1115
1130  C30038		JP	X3800
		;
1133  CD9111	A1133:	CALL	A1191
1136  CD4411		CALL	A1144
1139  20CA		JR	NZ,A1105
113B  1E01		LD	E,001H
113D  DD210042		LD	IX,04200H
1141  C32E38		JP	X382E
		;
1144  218C11	A1144:	LD	HL,T118C
1147  010805		LD	BC,00508H
114A  CD7511		CALL	A1175
114D  CD8511		CALL	A1185
1150  DB41		IN	A,(041H)
1152  CB57		BIT	2,A
1154  C27411		JP	NZ,A1174
1157  210042		LD	HL,04200H
115A  014000		LD	BC,00040H
115D  1602		LD	D,002H
115F  CD8511	A115F:	CALL	A1185
1162  EDA2		INI
1164  20F9		JR	NZ,A115F
1166  15		DEC	D
1167  20F6		JR	NZ,A115F
1169  CD8511		CALL	A1185
116C  DB40		IN	A,(040H)
116E  CB4F		BIT	1,A
1170  C27411		JP	NZ,A1174
1173  AF		XOR	A
1174  C9	A1174:	RET
		;
1175  D342	A1175:	OUT	(042H),A
1177  CD8511		CALL	A1185
117A  79		LD	A,C
117B  D340		OUT	(040H),A
117D  0E40		LD	C,040H
117F  CD8511		CALL	A1185
1182  EDB3		OTIR
1184  C9		RET
		;
1185  DB41	A1185:	IN	A,(041H)
1187  CB47		BIT	0,A
1189  28FA		JR	Z,A1185
118B  C9		RET
		;
		; >> NO EXECUTION PATH TO HERE <<
118C  00	T118C:	NOP
118D  00		NOP
118E  00		NOP
118F  0102AF		LD	BC,0AF02H
1192  D341		OUT	(041H),A
1194  D343		OUT	(043H),A
1196  E5		PUSH	HL
1197  D5		PUSH	DE
1198  C5		PUSH	BC
1199  21BC11		LD	HL,T11BC
119C  010C05		LD	BC,0050CH
119F  CD7511		CALL	A1175
11A2  0608		LD	B,008H
11A4  21B511		LD	HL,T11B5
11A7  0E40		LD	C,040H
11A9  CD8511		CALL	A1185
11AC  EDB3		OTIR
11AE  CDC211		CALL	A11C2
11B1  C1		POP	BC
11B2  D1		POP	DE
11B3  E1		POP	HL
11B4  C9		RET
		;
		; >> NO EXECUTION PATH TO HERE <<
11B5  02	T11B5:	LD	(BC),A
11B6  64		LD	H,H
11B7  02		LD	(BC),A
11B8  00		NOP
11B9  00		NOP
11BA  012C00		LD	BC,0002CH
11BD  00	T11BD:	NOP
11BE  00		NOP
11BF  00		NOP
11C0  00		NOP
11C1  01CD85		LD	BC,085CDH
11C4  11DB40		LD	DE,040DBH
11C7  CB4F		BIT	1,A
11C9  280F		JR	Z,A11DA
11CB  E5		PUSH	HL
11CC  D5		PUSH	DE
11CD  C5		PUSH	BC
11CE  21BD11		LD	HL,T11BD
11D1  010305		LD	BC,00503H
11D4  CD7511		CALL	A1175
11D7  C1		POP	BC
11D8  D1		POP	DE
11D9  E1		POP	HL
11DA  AF	A11DA:	XOR	A
11DB  C9		RET
		;
11DC  010000	A11DC:	LD	BC,00000H
11DF  0B	A11DF:	DEC	BC
11E0  78		LD	A,B
11E1  B1		OR	C
11E2  C8		RET	Z
11E3  18FA		JR	A11DF
		;
		; >> NO EXECUTION PATH TO HERE <<
11E5  FF		RST	038H
11E6  FF		RST	038H
11E7  FF		RST	038H
11E8  FF		RST	038H
11E9  FF		RST	038H
11EA  FF		RST	038H
11EB  FF		RST	038H
11EC  FF		RST	038H
11ED  FF		RST	038H
11EE  FF		RST	038H
11EF  FF		RST	038H
11F0  FF		RST	038H
11F1  FF		RST	038H
11F2  FF		RST	038H
11F3  FF		RST	038H
11F4  FF		RST	038H
11F5  FF		RST	038H
11F6  FF		RST	038H
11F7  FF		RST	038H
11F8  FF		RST	038H
11F9  FF		RST	038H
11FA  FF		RST	038H
11FB  FF		RST	038H
11FC  FF		RST	038H
11FD  FF		RST	038H
11FE  FF		RST	038H
11FF  FF		RST	038H
			END
		;
		; UNRESOLVED LABELS
		; A1191   T11BC   A11C2
		;
		; LABLE CROSS REFRENCE
		;Z0000      Z11DC
		;Z002C      Z11BA
		;Z0040      Z115A
		;Z0500      Z1118
		;Z0503      Z11D1
		;Z0508      Z1147
		;Z050C      Z119C
		;A1105      A110C   A1139
		;A1115      A112E
		;A1133      A1128
		;A1144      A1136
		;A115F      A1164   A1167
		;A1174      A1154   A1170
		;A1175      A111C   A114A   A119F   A11D4
		;A1185      A111F   A114D   A115F   A1169
		;           A1177   A117F   A1189   A11A9
		;T118C      T1144
		;A1191      A1133
		;T11B5      T11A4
		;T11BC      T1115   T1199
		;T11BD      T11CE
		;A11C2      A11AE
		;A11DA      A11C9
		;A11DC      A112A
		;A11DF      A11E3
		;X3800      X1105   X1130
		;X382E      X1141
		;Z40DB      Z11C4
		;Z4200      Z113D   Z1157
		;Z85CD      Z11C1
		;ZAF02      Z118F
		;YFFFF      Y1100
